target datalayout = "e-m:e-p270:32:32-p271:32:32-p272:64:64-i64:64-i128:128-f80:128-n8:16:32:64-S128"
target triple = "x86_64-pc-linux-gnu"

%"class.std::__cxx11::basic_string" = type { %"struct.std::__cxx11::basic_string<char>::_Alloc_hider", i64, %union.anon }
%"struct.std::__cxx11::basic_string<char>::_Alloc_hider" = type { ptr }
%union.anon = type { i64, [8 x i8] }

@.str.10 = private unnamed_addr constant [10 x i8] c"configure\00", align 1
@.str.11 = private unnamed_addr constant [6 x i8] c"build\00", align 1
@.str.12 = private unnamed_addr constant [5 x i8] c"test\00", align 1
@.str.13 = private unnamed_addr constant [8 x i8] c"package\00", align 1

; Function Attrs: mustprogress nounwind uwtable
define linkonce_odr dso_local noundef zeroext i1 @_ZSteqIcSt11char_traitsIcESaIcEEbRKNSt7__cxx1112basic_stringIT_T0_T1_EEPKS5_(ptr noundef nonnull align 8 dereferenceable(32) %0, ptr noundef %1) #4 comdat {
  %3 = alloca ptr, align 8
  %4 = alloca ptr, align 8
  store ptr %0, ptr %3, align 8
  store ptr %1, ptr %4, align 8
  %5 = load ptr, ptr %3, align 8
  %6 = load ptr, ptr %4, align 8
  %7 = call noundef i32 @_ZNKSt7__cxx1112basic_stringIcSt11char_traitsIcESaIcEE7compareEPKc(ptr noundef nonnull align 8 dereferenceable(32) %5, ptr noundef %6) #3
  %8 = icmp eq i32 %7, 0
  ret i1 %8
}

; Function Attrs: mustprogress uwtable
define internal noundef zeroext i1 @_ZN12_GLOBAL__N_122WorkflowStepTypeHelperERN19cmCMakePresetsGraph14WorkflowPreset12WorkflowStep4TypeEPKN4Json5ValueEP11cmJSONState(ptr noundef nonnull align 4 dereferenceable(4) %0, ptr noundef %1, ptr noundef %2) #5 personality ptr @__gxx_personality_v0 {
  %4 = alloca i1, align 1
  %5 = alloca ptr, align 8
  %6 = alloca ptr, align 8
  %7 = alloca ptr, align 8
  %8 = alloca %"class.std::__cxx11::basic_string", align 8
  %9 = alloca ptr, align 8
  %10 = alloca i32, align 4
  %11 = alloca %"class.std::__cxx11::basic_string", align 8
  %12 = alloca %"class.std::__cxx11::basic_string", align 8
  %13 = alloca %"class.std::__cxx11::basic_string", align 8
  store ptr %0, ptr %5, align 8
  store ptr %1, ptr %6, align 8
  store ptr %2, ptr %7, align 8
  %14 = load ptr, ptr %6, align 8
  %15 = icmp ne ptr %14, null
  br i1 %15, label %19, label %16

16:                                               ; preds = %3
  %17 = load ptr, ptr %6, align 8
  %18 = load ptr, ptr %7, align 8
  call void @_ZN20cmCMakePresetsErrors14INVALID_PRESETEPKN4Json5ValueEP11cmJSONState(ptr noundef %17, ptr noundef %18)
  store i1 false, ptr %4, align 1
  br label %66

19:                                               ; preds = %3
  %20 = load ptr, ptr %6, align 8
  %21 = call noundef zeroext i1 @_ZNK4Json5Value8isStringEv(ptr noundef nonnull align 8 dereferenceable(40) %20)
  br i1 %21, label %23, label %22

22:                                               ; preds = %19
  store i1 false, ptr %4, align 1
  br label %66

23:                                               ; preds = %19
  %24 = load ptr, ptr %6, align 8
  call void @_ZNK4Json5Value8asStringB5cxx11Ev(ptr dead_on_unwind writable sret(%"class.std::__cxx11::basic_string") align 8 %8, ptr noundef nonnull align 8 dereferenceable(40) %24)
  %25 = invoke noundef zeroext i1 @_ZSteqIcSt11char_traitsIcESaIcEEbRKNSt7__cxx1112basic_stringIT_T0_T1_EEPKS5_(ptr noundef nonnull align 8 dereferenceable(32) %8, ptr noundef @.str.10)
          to label %26 unwind label %29

26:                                               ; preds = %23
  call void @_ZNSt7__cxx1112basic_stringIcSt11char_traitsIcESaIcEED1Ev(ptr noundef nonnull align 8 dereferenceable(32) %8) #3
  br i1 %25, label %27, label %33

27:                                               ; preds = %26
  %28 = load ptr, ptr %5, align 8
  store i32 0, ptr %28, align 4
  store i1 true, ptr %4, align 1
  br label %66

29:                                               ; preds = %23
  %30 = landingpad { ptr, i32 }
          cleanup
  %31 = extractvalue { ptr, i32 } %30, 0
  store ptr %31, ptr %9, align 8
  %32 = extractvalue { ptr, i32 } %30, 1
  store i32 %32, ptr %10, align 4
  call void @_ZNSt7__cxx1112basic_stringIcSt11char_traitsIcESaIcEED1Ev(ptr noundef nonnull align 8 dereferenceable(32) %8) #3
  br label %68

33:                                               ; preds = %26
  %34 = load ptr, ptr %6, align 8
  call void @_ZNK4Json5Value8asStringB5cxx11Ev(ptr dead_on_unwind writable sret(%"class.std::__cxx11::basic_string") align 8 %11, ptr noundef nonnull align 8 dereferenceable(40) %34)
  %35 = invoke noundef zeroext i1 @_ZSteqIcSt11char_traitsIcESaIcEEbRKNSt7__cxx1112basic_stringIT_T0_T1_EEPKS5_(ptr noundef nonnull align 8 dereferenceable(32) %11, ptr noundef @.str.11)
          to label %36 unwind label %39

36:                                               ; preds = %33
  call void @_ZNSt7__cxx1112basic_stringIcSt11char_traitsIcESaIcEED1Ev(ptr noundef nonnull align 8 dereferenceable(32) %11) #3
  br i1 %35, label %37, label %43

37:                                               ; preds = %36
  %38 = load ptr, ptr %5, align 8
  store i32 1, ptr %38, align 4
  store i1 true, ptr %4, align 1
  br label %66

39:                                               ; preds = %33
  %40 = landingpad { ptr, i32 }
          cleanup
  %41 = extractvalue { ptr, i32 } %40, 0
  store ptr %41, ptr %9, align 8
  %42 = extractvalue { ptr, i32 } %40, 1
  store i32 %42, ptr %10, align 4
  call void @_ZNSt7__cxx1112basic_stringIcSt11char_traitsIcESaIcEED1Ev(ptr noundef nonnull align 8 dereferenceable(32) %11) #3
  br label %68

43:                                               ; preds = %36
  %44 = load ptr, ptr %6, align 8
  call void @_ZNK4Json5Value8asStringB5cxx11Ev(ptr dead_on_unwind writable sret(%"class.std::__cxx11::basic_string") align 8 %12, ptr noundef nonnull align 8 dereferenceable(40) %44)
  %45 = invoke noundef zeroext i1 @_ZSteqIcSt11char_traitsIcESaIcEEbRKNSt7__cxx1112basic_stringIT_T0_T1_EEPKS5_(ptr noundef nonnull align 8 dereferenceable(32) %12, ptr noundef @.str.12)
          to label %46 unwind label %49

46:                                               ; preds = %43
  call void @_ZNSt7__cxx1112basic_stringIcSt11char_traitsIcESaIcEED1Ev(ptr noundef nonnull align 8 dereferenceable(32) %12) #3
  br i1 %45, label %47, label %53

47:                                               ; preds = %46
  %48 = load ptr, ptr %5, align 8
  store i32 2, ptr %48, align 4
  store i1 true, ptr %4, align 1
  br label %66

49:                                               ; preds = %43
  %50 = landingpad { ptr, i32 }
          cleanup
  %51 = extractvalue { ptr, i32 } %50, 0
  store ptr %51, ptr %9, align 8
  %52 = extractvalue { ptr, i32 } %50, 1
  store i32 %52, ptr %10, align 4
  call void @_ZNSt7__cxx1112basic_stringIcSt11char_traitsIcESaIcEED1Ev(ptr noundef nonnull align 8 dereferenceable(32) %12) #3
  br label %68

53:                                               ; preds = %46
  %54 = load ptr, ptr %6, align 8
  call void @_ZNK4Json5Value8asStringB5cxx11Ev(ptr dead_on_unwind writable sret(%"class.std::__cxx11::basic_string") align 8 %13, ptr noundef nonnull align 8 dereferenceable(40) %54)
  %55 = invoke noundef zeroext i1 @_ZSteqIcSt11char_traitsIcESaIcEEbRKNSt7__cxx1112basic_stringIT_T0_T1_EEPKS5_(ptr noundef nonnull align 8 dereferenceable(32) %13, ptr noundef @.str.13)
          to label %56 unwind label %59

56:                                               ; preds = %53
  call void @_ZNSt7__cxx1112basic_stringIcSt11char_traitsIcESaIcEED1Ev(ptr noundef nonnull align 8 dereferenceable(32) %13) #3
  br i1 %55, label %57, label %63

57:                                               ; preds = %56
  %58 = load ptr, ptr %5, align 8
  store i32 3, ptr %58, align 4
  store i1 true, ptr %4, align 1
  br label %66

59:                                               ; preds = %53
  %60 = landingpad { ptr, i32 }
          cleanup
  %61 = extractvalue { ptr, i32 } %60, 0
  store ptr %61, ptr %9, align 8
  %62 = extractvalue { ptr, i32 } %60, 1
  store i32 %62, ptr %10, align 4
  call void @_ZNSt7__cxx1112basic_stringIcSt11char_traitsIcESaIcEED1Ev(ptr noundef nonnull align 8 dereferenceable(32) %13) #3
  br label %68

63:                                               ; preds = %56
  %64 = load ptr, ptr %6, align 8
  %65 = load ptr, ptr %7, align 8
  call void @_ZN20cmCMakePresetsErrors14INVALID_PRESETEPKN4Json5ValueEP11cmJSONState(ptr noundef %64, ptr noundef %65)
  store i1 false, ptr %4, align 1
  br label %66

66:                                               ; preds = %63, %57, %47, %37, %27, %22, %16
  %67 = load i1, ptr %4, align 1
  ret i1 %67

68:                                               ; preds = %59, %49, %39, %29
  %69 = load ptr, ptr %9, align 8
  %70 = load i32, ptr %10, align 4
  %71 = insertvalue { ptr, i32 } poison, ptr %69, 0
  %72 = insertvalue { ptr, i32 } %71, i32 %70, 1
  resume { ptr, i32 } %72
}